target datalayout = "e-m:e-p270:32:32-p271:32:32-p272:64:64-i64:64-i128:128-f80:128-n8:16:32:64-S128"
target triple = "x86_64-pc-linux-gnu"

; Function Attrs: nounwind uwtable
define internal i32 @nextprop_(ptr noundef %0, i32 noundef %1) #0 {
  %3 = alloca i32, align 4
  %4 = alloca ptr, align 8
  %5 = alloca i32, align 4
  %6 = alloca i32, align 4
  %7 = alloca i32, align 4
  %8 = alloca i32, align 4
  store ptr %0, ptr %4, align 8, !tbaa !3
  store i32 %1, ptr %5, align 4, !tbaa !7
  call void @llvm.lifetime.start.p0(i64 4, ptr %6) #6
  call void @llvm.lifetime.start.p0(i64 4, ptr %7) #6
  br label %9

9:                                                ; preds = %24, %2
  %10 = load ptr, ptr %4, align 8, !tbaa !3
  %11 = load i32, ptr %5, align 4, !tbaa !7
  %12 = call i32 @fdt_next_tag(ptr noundef %10, i32 noundef %11, ptr noundef %7)
  store i32 %12, ptr %6, align 4, !tbaa !7
  %13 = load i32, ptr %6, align 4, !tbaa !7
  switch i32 %13, label %22 [
    i32 9, label %14
    i32 3, label %20
  ]

14:                                               ; preds = %9
  %15 = load i32, ptr %7, align 4, !tbaa !7
  %16 = icmp sge i32 %15, 0
  br i1 %16, label %17, label %18

17:                                               ; preds = %14
  store i32 -11, ptr %3, align 4
  store i32 1, ptr %8, align 4
  br label %28

18:                                               ; preds = %14
  %19 = load i32, ptr %7, align 4, !tbaa !7
  store i32 %19, ptr %3, align 4
  store i32 1, ptr %8, align 4
  br label %28

20:                                               ; preds = %9
  %21 = load i32, ptr %5, align 4, !tbaa !7
  store i32 %21, ptr %3, align 4
  store i32 1, ptr %8, align 4
  br label %28

22:                                               ; preds = %9
  %23 = load i32, ptr %7, align 4, !tbaa !7
  store i32 %23, ptr %5, align 4, !tbaa !7
  br label %24

24:                                               ; preds = %22
  %25 = load i32, ptr %6, align 4, !tbaa !7
  %26 = icmp eq i32 %25, 4
  br i1 %26, label %9, label %27, !llvm.loop !27

27:                                               ; preds = %24
  store i32 -1, ptr %3, align 4
  store i32 1, ptr %8, align 4
  br label %28

28:                                               ; preds = %27, %20, %18, %17
  call void @llvm.lifetime.end.p0(i64 4, ptr %7) #6
  call void @llvm.lifetime.end.p0(i64 4, ptr %6) #6
  %29 = load i32, ptr %3, align 4
  ret i32 %29
}

; Function Attrs: nounwind uwtable
define i32 @fdt_first_property_offset(ptr noundef %0, i32 noundef %1) #0 {
  %3 = alloca i32, align 4
  %4 = alloca ptr, align 8
  %5 = alloca i32, align 4
  %6 = alloca i32, align 4
  %7 = alloca i32, align 4
  store ptr %0, ptr %4, align 8, !tbaa !3
  store i32 %1, ptr %5, align 4, !tbaa !7
  call void @llvm.lifetime.start.p0(i64 4, ptr %6) #6
  %8 = load ptr, ptr %4, align 8, !tbaa !3
  %9 = load i32, ptr %5, align 4, !tbaa !7
  %10 = call i32 @fdt_check_node_offset_(ptr noundef %8, i32 noundef %9)
  store i32 %10, ptr %6, align 4, !tbaa !7
  %11 = icmp slt i32 %10, 0
  br i1 %11, label %12, label %14

12:                                               ; preds = %2
  %13 = load i32, ptr %6, align 4, !tbaa !7
  store i32 %13, ptr %3, align 4
  store i32 1, ptr %7, align 4
  br label %18

14:                                               ; preds = %2
  %15 = load ptr, ptr %4, align 8, !tbaa !3
  %16 = load i32, ptr %6, align 4, !tbaa !7
  %17 = call i32 @nextprop_(ptr noundef %15, i32 noundef %16)
  store i32 %17, ptr %3, align 4
  store i32 1, ptr %7, align 4
  br label %18

18:                                               ; preds = %14, %12
  call void @llvm.lifetime.end.p0(i64 4, ptr %6) #6
  %19 = load i32, ptr %3, align 4
  ret i32 %19
}